; Function Attrs: mustprogress nounwind uwtable
define void @_ZN13RichParameterD2Ev(ptr nocapture noundef nonnull align 8 dereferenceable(56) %0) unnamed_addr #6 align 2 personality ptr @__gxx_personality_v0 {
  store ptr getelementptr inbounds ({ [8 x ptr] }, ptr @_ZTV13RichParameter, i64 0, i32 0, i64 2), ptr %0, align 8
  %2 = getelementptr inbounds i8, ptr %0, i64 16
  %3 = load ptr, ptr %2, align 8
  %4 = icmp eq ptr %3, null
  br i1 %4, label %9, label %5

5:                                                ; preds = %1
  %6 = load ptr, ptr %3, align 8
  %7 = getelementptr inbounds i8, ptr %6, i64 8
  %8 = load ptr, ptr %7, align 8
  tail call void %8(ptr noundef nonnull align 8 dereferenceable(8) %3) #21
  br label %9

9:                                                ; preds = %5, %1
  %10 = getelementptr inbounds i8, ptr %0, i64 48
  %11 = load ptr, ptr %10, align 8
  %12 = load atomic i32, ptr %11 monotonic, align 4
  switch i32 %12, label %_ZN9QtPrivate8RefCount5derefEv.exit.i [
    i32 0, label %_ZN9QtPrivate8RefCount5derefEv.exit.thread2.i
    i32 -1, label %_ZN7QStringD2Ev.exit
  ]

_ZN9QtPrivate8RefCount5derefEv.exit.i:            ; preds = %9
  %13 = atomicrmw sub ptr %11, i32 1 seq_cst, align 4
  %.not.i = icmp eq i32 %13, 1
  br i1 %.not.i, label %_ZN9QtPrivate8RefCount5derefEv.exit._ZN9QtPrivate8RefCount5derefEv.exit.thread2_crit_edge.i, label %_ZN7QStringD2Ev.exit

_ZN9QtPrivate8RefCount5derefEv.exit._ZN9QtPrivate8RefCount5derefEv.exit.thread2_crit_edge.i: ; preds = %_ZN9QtPrivate8RefCount5derefEv.exit.i
  %.pre.i = load ptr, ptr %10, align 8
  br label %_ZN9QtPrivate8RefCount5derefEv.exit.thread2.i

_ZN9QtPrivate8RefCount5derefEv.exit.thread2.i:    ; preds = %_ZN9QtPrivate8RefCount5derefEv.exit._ZN9QtPrivate8RefCount5derefEv.exit.thread2_crit_edge.i, %9
  %14 = phi ptr [ %.pre.i, %_ZN9QtPrivate8RefCount5derefEv.exit._ZN9QtPrivate8RefCount5derefEv.exit.thread2_crit_edge.i ], [ %11, %9 ]
  tail call void @_ZN10QArrayData10deallocateEPS_mm(ptr noundef %14, i64 noundef 2, i64 noundef 8) #21
  br label %_ZN7QStringD2Ev.exit

_ZN7QStringD2Ev.exit:                             ; preds = %9, %_ZN9QtPrivate8RefCount5derefEv.exit.i, %_ZN9QtPrivate8RefCount5derefEv.exit.thread2.i
  %15 = getelementptr inbounds i8, ptr %0, i64 32
  %16 = load ptr, ptr %15, align 8
  %17 = load atomic i32, ptr %16 monotonic, align 4
  switch i32 %17, label %_ZN9QtPrivate8RefCount5derefEv.exit.i2 [
    i32 0, label %_ZN9QtPrivate8RefCount5derefEv.exit.thread2.i1
    i32 -1, label %_ZN7QStringD2Ev.exit6
  ]

_ZN9QtPrivate8RefCount5derefEv.exit.i2:           ; preds = %_ZN7QStringD2Ev.exit
  %18 = atomicrmw sub ptr %16, i32 1 seq_cst, align 4
  %.not.i3 = icmp eq i32 %18, 1
  br i1 %.not.i3, label %_ZN9QtPrivate8RefCount5derefEv.exit._ZN9QtPrivate8RefCount5derefEv.exit.thread2_crit_edge.i4, label %_ZN7QStringD2Ev.exit6

_ZN9QtPrivate8RefCount5derefEv.exit._ZN9QtPrivate8RefCount5derefEv.exit.thread2_crit_edge.i4: ; preds = %_ZN9QtPrivate8RefCount5derefEv.exit.i2
  %.pre.i5 = load ptr, ptr %15, align 8
  br label %_ZN9QtPrivate8RefCount5derefEv.exit.thread2.i1

_ZN9QtPrivate8RefCount5derefEv.exit.thread2.i1:   ; preds = %_ZN9QtPrivate8RefCount5derefEv.exit._ZN9QtPrivate8RefCount5derefEv.exit.thread2_crit_edge.i4, %_ZN7QStringD2Ev.exit
  %19 = phi ptr [ %.pre.i5, %_ZN9QtPrivate8RefCount5derefEv.exit._ZN9QtPrivate8RefCount5derefEv.exit.thread2_crit_edge.i4 ], [ %16, %_ZN7QStringD2Ev.exit ]
  tail call void @_ZN10QArrayData10deallocateEPS_mm(ptr noundef %19, i64 noundef 2, i64 noundef 8) #21
  br label %_ZN7QStringD2Ev.exit6

_ZN7QStringD2Ev.exit6:                            ; preds = %_ZN7QStringD2Ev.exit, %_ZN9QtPrivate8RefCount5derefEv.exit.i2, %_ZN9QtPrivate8RefCount5derefEv.exit.thread2.i1
  %20 = getelementptr inbounds i8, ptr %0, i64 24
  %21 = load ptr, ptr %20, align 8
  %22 = load atomic i32, ptr %21 monotonic, align 4
  switch i32 %22, label %_ZN9QtPrivate8RefCount5derefEv.exit.i8 [
    i32 0, label %_ZN9QtPrivate8RefCount5derefEv.exit.thread2.i7
    i32 -1, label %_ZN7QStringD2Ev.exit12
  ]

_ZN9QtPrivate8RefCount5derefEv.exit.i8:           ; preds = %_ZN7QStringD2Ev.exit6
  %23 = atomicrmw sub ptr %21, i32 1 seq_cst, align 4
  %.not.i9 = icmp eq i32 %23, 1
  br i1 %.not.i9, label %_ZN9QtPrivate8RefCount5derefEv.exit._ZN9QtPrivate8RefCount5derefEv.exit.thread2_crit_edge.i10, label %_ZN7QStringD2Ev.exit12

_ZN9QtPrivate8RefCount5derefEv.exit._ZN9QtPrivate8RefCount5derefEv.exit.thread2_crit_edge.i10: ; preds = %_ZN9QtPrivate8RefCount5derefEv.exit.i8
  %.pre.i11 = load ptr, ptr %20, align 8
  br label %_ZN9QtPrivate8RefCount5derefEv.exit.thread2.i7

_ZN9QtPrivate8RefCount5derefEv.exit.thread2.i7:   ; preds = %_ZN9QtPrivate8RefCount5derefEv.exit._ZN9QtPrivate8RefCount5derefEv.exit.thread2_crit_edge.i10, %_ZN7QStringD2Ev.exit6
  %24 = phi ptr [ %.pre.i11, %_ZN9QtPrivate8RefCount5derefEv.exit._ZN9QtPrivate8RefCount5derefEv.exit.thread2_crit_edge.i10 ], [ %21, %_ZN7QStringD2Ev.exit6 ]
  tail call void @_ZN10QArrayData10deallocateEPS_mm(ptr noundef %24, i64 noundef 2, i64 noundef 8) #21
  br label %_ZN7QStringD2Ev.exit12

_ZN7QStringD2Ev.exit12:                           ; preds = %_ZN7QStringD2Ev.exit6, %_ZN9QtPrivate8RefCount5derefEv.exit.i8, %_ZN9QtPrivate8RefCount5derefEv.exit.thread2.i7
  %25 = getelementptr inbounds i8, ptr %0, i64 8
  %26 = load ptr, ptr %25, align 8
  %27 = load atomic i32, ptr %26 monotonic, align 4
  switch i32 %27, label %_ZN9QtPrivate8RefCount5derefEv.exit.i14 [
    i32 0, label %_ZN9QtPrivate8RefCount5derefEv.exit.thread2.i13
    i32 -1, label %_ZN7QStringD2Ev.exit18
  ]

_ZN9QtPrivate8RefCount5derefEv.exit.i14:          ; preds = %_ZN7QStringD2Ev.exit12
  %28 = atomicrmw sub ptr %26, i32 1 seq_cst, align 4
  %.not.i15 = icmp eq i32 %28, 1
  br i1 %.not.i15, label %_ZN9QtPrivate8RefCount5derefEv.exit._ZN9QtPrivate8RefCount5derefEv.exit.thread2_crit_edge.i16, label %_ZN7QStringD2Ev.exit18

_ZN9QtPrivate8RefCount5derefEv.exit._ZN9QtPrivate8RefCount5derefEv.exit.thread2_crit_edge.i16: ; preds = %_ZN9QtPrivate8RefCount5derefEv.exit.i14
  %.pre.i17 = load ptr, ptr %25, align 8
  br label %_ZN9QtPrivate8RefCount5derefEv.exit.thread2.i13

_ZN9QtPrivate8RefCount5derefEv.exit.thread2.i13:  ; preds = %_ZN9QtPrivate8RefCount5derefEv.exit._ZN9QtPrivate8RefCount5derefEv.exit.thread2_crit_edge.i16, %_ZN7QStringD2Ev.exit12
  %29 = phi ptr [ %.pre.i17, %_ZN9QtPrivate8RefCount5derefEv.exit._ZN9QtPrivate8RefCount5derefEv.exit.thread2_crit_edge.i16 ], [ %26, %_ZN7QStringD2Ev.exit12 ]
  tail call void @_ZN10QArrayData10deallocateEPS_mm(ptr noundef %29, i64 noundef 2, i64 noundef 8) #21
  br label %_ZN7QStringD2Ev.exit18

_ZN7QStringD2Ev.exit18:                           ; preds = %_ZN7QStringD2Ev.exit12, %_ZN9QtPrivate8RefCount5derefEv.exit.i14, %_ZN9QtPrivate8RefCount5derefEv.exit.thread2.i13
  ret void
}